; Function Attrs: mustprogress nounwind uwtable
define hidden noundef zeroext i1 @_ZN6hermes6parser6detail12JSParserImpl22recursionDepthExceededEv(ptr nocapture noundef nonnull readonly align 8 dereferenceable(2752) %this) local_unnamed_addr #0 align 2 {
entry:
  %ref.tmp = alloca %"class.llvh::Twine", align 8
  %tok_ = getelementptr inbounds i8, ptr %this, i64 1144
  %0 = load ptr, ptr %tok_, align 8
  %range_.i = getelementptr inbounds i8, ptr %0, i64 8
  %retval.sroa.0.0.copyload.i = load ptr, ptr %range_.i, align 8
  %LHSKind.i = getelementptr inbounds i8, ptr %ref.tmp, i64 16
  %RHSKind.i = getelementptr inbounds i8, ptr %ref.tmp, i64 17
  store i8 1, ptr %RHSKind.i, align 1
  store ptr @.str.78, ptr %ref.tmp, align 8
  store i8 3, ptr %LHSKind.i, align 8
  %sm_.i = getelementptr inbounds i8, ptr %this, i64 8
  %1 = load ptr, ptr %sm_.i, align 8
  call void @_ZN6hermes18SourceErrorManager7messageENS0_8DiagKindEN4llvh5SMLocERKNS2_5TwineENS_9SubsystemE(ptr noundef nonnull align 8 dereferenceable(464) %1, i32 noundef 0, ptr %retval.sroa.0.0.copyload.i, ptr noundef nonnull align 8 dereferenceable(18) %ref.tmp, i32 noundef 2) #16
  ret i1 true
}